target datalayout = "e-m:e-p270:32:32-p271:32:32-p272:64:64-i64:64-i128:128-f80:128-n8:16:32:64-S128"
target triple = "x86_64-pc-linux-gnu"

%"struct.Luau::NotNull" = type { ptr }
%"class.std::vector" = type { %"struct.std::_Vector_base" }
%"struct.std::_Vector_base" = type { %"struct.std::_Vector_base<Luau::Variant<Luau::Variadic, Luau::Negation, Luau::Conjunction, Luau::Disjunction, Luau::Equivalence, Luau::Proposition> *, std::allocator<Luau::Variant<Luau::Variadic, Luau::Negation, Luau::Conjunction, Luau::Disjunction, Luau::Equivalence, Luau::Proposition> *>>::_Vector_impl" }
%"struct.std::_Vector_base<Luau::Variant<Luau::Variadic, Luau::Negation, Luau::Conjunction, Luau::Disjunction, Luau::Equivalence, Luau::Proposition> *, std::allocator<Luau::Variant<Luau::Variadic, Luau::Negation, Luau::Conjunction, Luau::Disjunction, Luau::Equivalence, Luau::Proposition> *>>::_Vector_impl" = type { %"struct.std::_Vector_base<Luau::Variant<Luau::Variadic, Luau::Negation, Luau::Conjunction, Luau::Disjunction, Luau::Equivalence, Luau::Proposition> *, std::allocator<Luau::Variant<Luau::Variadic, Luau::Negation, Luau::Conjunction, Luau::Disjunction, Luau::Equivalence, Luau::Proposition> *>>::_Vector_impl_data" }
%"struct.std::_Vector_base<Luau::Variant<Luau::Variadic, Luau::Negation, Luau::Conjunction, Luau::Disjunction, Luau::Equivalence, Luau::Proposition> *, std::allocator<Luau::Variant<Luau::Variadic, Luau::Negation, Luau::Conjunction, Luau::Disjunction, Luau::Equivalence, Luau::Proposition> *>>::_Vector_impl_data" = type { ptr, ptr, ptr }
%"struct.Luau::RefinementArena" = type { %"class.Luau::TypedAllocator" }
%"class.Luau::TypedAllocator" = type { i8, %"class.std::vector", i64 }
%"class.Luau::Variant" = type { i32, [4 x i8], [24 x i8] }
%"struct.Luau::Equivalence" = type { ptr, ptr }
%"class.__gnu_cxx::__normal_iterator.0" = type { ptr }

; Function Attrs: mustprogress nounwind uwtable
define linkonce_odr dso_local void @_ZN9__gnu_cxx17__normal_iteratorIPPN4Luau7VariantIJNS1_8VariadicENS1_8NegationENS1_11ConjunctionENS1_11DisjunctionENS1_11EquivalenceENS1_11PropositionEEEESt6vectorISA_SaISA_EEEC2ERKSB_(ptr noundef nonnull align 8 dereferenceable(8) %0, ptr noundef nonnull align 8 dereferenceable(8) %1) unnamed_addr #1 comdat align 2 {
  %3 = alloca ptr, align 8
  %4 = alloca ptr, align 8
  store ptr %0, ptr %3, align 8
  store ptr %1, ptr %4, align 8
  %5 = load ptr, ptr %3, align 8
  %6 = getelementptr inbounds %"class.__gnu_cxx::__normal_iterator.0", ptr %5, i32 0, i32 0
  %7 = load ptr, ptr %4, align 8
  %8 = load ptr, ptr %7, align 8
  store ptr %8, ptr %6, align 8
  ret void
}

; Function Attrs: mustprogress nounwind uwtable
define linkonce_odr dso_local noundef nonnull align 8 dereferenceable(8) ptr @_ZNK9__gnu_cxx17__normal_iteratorIPPN4Luau7VariantIJNS1_8VariadicENS1_8NegationENS1_11ConjunctionENS1_11DisjunctionENS1_11EquivalenceENS1_11PropositionEEEESt6vectorISA_SaISA_EEEdeEv(ptr noundef nonnull align 8 dereferenceable(8) %0) #1 comdat align 2 {
  %2 = alloca ptr, align 8
  store ptr %0, ptr %2, align 8
  %3 = load ptr, ptr %2, align 8
  %4 = getelementptr inbounds %"class.__gnu_cxx::__normal_iterator.0", ptr %3, i32 0, i32 0
  %5 = load ptr, ptr %4, align 8
  ret ptr %5
}

; Function Attrs: mustprogress nounwind uwtable
define linkonce_odr dso_local ptr @_ZNK9__gnu_cxx17__normal_iteratorIPPN4Luau7VariantIJNS1_8VariadicENS1_8NegationENS1_11ConjunctionENS1_11DisjunctionENS1_11EquivalenceENS1_11PropositionEEEESt6vectorISA_SaISA_EEEmiEl(ptr noundef nonnull align 8 dereferenceable(8) %0, i64 noundef %1) #1 comdat align 2 {
  %3 = alloca %"class.__gnu_cxx::__normal_iterator.0", align 8
  %4 = alloca ptr, align 8
  %5 = alloca i64, align 8
  %6 = alloca ptr, align 8
  store ptr %0, ptr %4, align 8
  store i64 %1, ptr %5, align 8
  %7 = load ptr, ptr %4, align 8
  %8 = getelementptr inbounds %"class.__gnu_cxx::__normal_iterator.0", ptr %7, i32 0, i32 0
  %9 = load ptr, ptr %8, align 8
  %10 = load i64, ptr %5, align 8
  %11 = sub i64 0, %10
  %12 = getelementptr inbounds ptr, ptr %9, i64 %11
  store ptr %12, ptr %6, align 8
  call void @_ZN9__gnu_cxx17__normal_iteratorIPPN4Luau7VariantIJNS1_8VariadicENS1_8NegationENS1_11ConjunctionENS1_11DisjunctionENS1_11EquivalenceENS1_11PropositionEEEESt6vectorISA_SaISA_EEEC2ERKSB_(ptr noundef nonnull align 8 dereferenceable(8) %3, ptr noundef nonnull align 8 dereferenceable(8) %6) #9
  %13 = getelementptr inbounds %"class.__gnu_cxx::__normal_iterator.0", ptr %3, i32 0, i32 0
  %14 = load ptr, ptr %13, align 8
  ret ptr %14
}

; Function Attrs: mustprogress nounwind uwtable
define linkonce_odr dso_local ptr @_ZNSt6vectorIPN4Luau7VariantIJNS0_8VariadicENS0_8NegationENS0_11ConjunctionENS0_11DisjunctionENS0_11EquivalenceENS0_11PropositionEEEESaIS9_EE3endEv(ptr noundef nonnull align 8 dereferenceable(24) %0) #1 comdat align 2 {
  %2 = alloca %"class.__gnu_cxx::__normal_iterator.0", align 8
  %3 = alloca ptr, align 8
  store ptr %0, ptr %3, align 8
  %4 = load ptr, ptr %3, align 8
  %5 = getelementptr inbounds %"struct.std::_Vector_base", ptr %4, i32 0, i32 0
  %6 = getelementptr inbounds %"struct.std::_Vector_base<Luau::Variant<Luau::Variadic, Luau::Negation, Luau::Conjunction, Luau::Disjunction, Luau::Equivalence, Luau::Proposition> *, std::allocator<Luau::Variant<Luau::Variadic, Luau::Negation, Luau::Conjunction, Luau::Disjunction, Luau::Equivalence, Luau::Proposition> *>>::_Vector_impl_data", ptr %5, i32 0, i32 1
  call void @_ZN9__gnu_cxx17__normal_iteratorIPPN4Luau7VariantIJNS1_8VariadicENS1_8NegationENS1_11ConjunctionENS1_11DisjunctionENS1_11EquivalenceENS1_11PropositionEEEESt6vectorISA_SaISA_EEEC2ERKSB_(ptr noundef nonnull align 8 dereferenceable(8) %2, ptr noundef nonnull align 8 dereferenceable(8) %6) #9
  %7 = getelementptr inbounds %"class.__gnu_cxx::__normal_iterator.0", ptr %2, i32 0, i32 0
  %8 = load ptr, ptr %7, align 8
  ret ptr %8
}

; Function Attrs: mustprogress nounwind uwtable
define linkonce_odr dso_local void @_ZN4Luau7VariantIJNS_8VariadicENS_8NegationENS_11ConjunctionENS_11DisjunctionENS_11EquivalenceENS_11PropositionEEEC2IS5_EEOT_PNSt9enable_ifIXgecl9getTypeIdIS9_EELi0EEvE4typeE(ptr noundef nonnull align 8 dereferenceable(32) %0, ptr noundef nonnull align 8 dereferenceable(16) %1, ptr noundef %2) unnamed_addr #1 comdat align 2 {
  %4 = alloca ptr, align 8
  %5 = alloca ptr, align 8
  %6 = alloca ptr, align 8
  %7 = alloca i32, align 4
  store ptr %0, ptr %4, align 8
  store ptr %1, ptr %5, align 8
  store ptr %2, ptr %6, align 8
  %8 = load ptr, ptr %4, align 8
  store i32 4, ptr %7, align 4
  %9 = getelementptr inbounds %"class.Luau::Variant", ptr %8, i32 0, i32 0
  store i32 4, ptr %9, align 8
  %10 = getelementptr inbounds %"class.Luau::Variant", ptr %8, i32 0, i32 2
  %11 = load ptr, ptr %5, align 8
  call void @llvm.memcpy.p0.p0.i64(ptr align 8 %10, ptr align 8 %11, i64 16, i1 false)
  ret void
}

; Function Attrs: mustprogress nounwind uwtable
define linkonce_odr dso_local noundef nonnull align 8 dereferenceable(8) ptr @_ZNSt6vectorIPN4Luau7VariantIJNS0_8VariadicENS0_8NegationENS0_11ConjunctionENS0_11DisjunctionENS0_11EquivalenceENS0_11PropositionEEEESaIS9_EE4backEv(ptr noundef nonnull align 8 dereferenceable(24) %0) #1 comdat align 2 {
  %2 = alloca ptr, align 8
  %3 = alloca %"class.__gnu_cxx::__normal_iterator.0", align 8
  %4 = alloca %"class.__gnu_cxx::__normal_iterator.0", align 8
  store ptr %0, ptr %2, align 8
  %5 = load ptr, ptr %2, align 8
  %6 = call ptr @_ZNSt6vectorIPN4Luau7VariantIJNS0_8VariadicENS0_8NegationENS0_11ConjunctionENS0_11DisjunctionENS0_11EquivalenceENS0_11PropositionEEEESaIS9_EE3endEv(ptr noundef nonnull align 8 dereferenceable(24) %5) #9
  %7 = getelementptr inbounds %"class.__gnu_cxx::__normal_iterator.0", ptr %4, i32 0, i32 0
  store ptr %6, ptr %7, align 8
  %8 = call ptr @_ZNK9__gnu_cxx17__normal_iteratorIPPN4Luau7VariantIJNS1_8VariadicENS1_8NegationENS1_11ConjunctionENS1_11DisjunctionENS1_11EquivalenceENS1_11PropositionEEEESt6vectorISA_SaISA_EEEmiEl(ptr noundef nonnull align 8 dereferenceable(8) %4, i64 noundef 1) #9
  %9 = getelementptr inbounds %"class.__gnu_cxx::__normal_iterator.0", ptr %3, i32 0, i32 0
  store ptr %8, ptr %9, align 8
  %10 = call noundef nonnull align 8 dereferenceable(8) ptr @_ZNK9__gnu_cxx17__normal_iteratorIPPN4Luau7VariantIJNS1_8VariadicENS1_8NegationENS1_11ConjunctionENS1_11DisjunctionENS1_11EquivalenceENS1_11PropositionEEEESt6vectorISA_SaISA_EEEdeEv(ptr noundef nonnull align 8 dereferenceable(8) %3) #9
  ret ptr %10
}

; Function Attrs: mustprogress nounwind uwtable
define linkonce_odr dso_local noundef ptr @_ZNK4Luau7NotNullINS_7VariantIJNS_8VariadicENS_8NegationENS_11ConjunctionENS_11DisjunctionENS_11EquivalenceENS_11PropositionEEEEEcvPS8_Ev(ptr noundef nonnull align 8 dereferenceable(8) %0) #1 comdat align 2 {
  %2 = alloca ptr, align 8
  store ptr %0, ptr %2, align 8
  %3 = load ptr, ptr %2, align 8
  %4 = getelementptr inbounds %"struct.Luau::NotNull", ptr %3, i32 0, i32 0
  %5 = load ptr, ptr %4, align 8
  ret ptr %5
}

; Function Attrs: mustprogress nounwind uwtable
define linkonce_odr dso_local void @_ZN4Luau7NotNullINS_7VariantIJNS_8VariadicENS_8NegationENS_11ConjunctionENS_11DisjunctionENS_11EquivalenceENS_11PropositionEEEEEC2EPS8_(ptr noundef nonnull align 8 dereferenceable(8) %0, ptr noundef %1) unnamed_addr #1 comdat align 2 {
  %3 = alloca ptr, align 8
  %4 = alloca ptr, align 8
  store ptr %0, ptr %3, align 8
  store ptr %1, ptr %4, align 8
  %5 = load ptr, ptr %3, align 8
  %6 = getelementptr inbounds %"struct.Luau::NotNull", ptr %5, i32 0, i32 0
  %7 = load ptr, ptr %4, align 8
  store ptr %7, ptr %6, align 8
  ret void
}

; Function Attrs: mustprogress uwtable
define linkonce_odr dso_local noundef ptr @_ZN4Luau14TypedAllocatorINS_7VariantIJNS_8VariadicENS_8NegationENS_11ConjunctionENS_11DisjunctionENS_11EquivalenceENS_11PropositionEEEEE8allocateIJS6_EEEPS8_DpOT_(ptr noundef nonnull align 8 dereferenceable(40) %0, ptr noundef nonnull align 8 dereferenceable(16) %1) #0 comdat align 2 {
  %3 = alloca ptr, align 8
  %4 = alloca ptr, align 8
  %5 = alloca ptr, align 8
  %6 = alloca ptr, align 8
  store ptr %0, ptr %3, align 8
  store ptr %1, ptr %4, align 8
  %7 = load ptr, ptr %3, align 8
  %8 = getelementptr inbounds %"class.Luau::TypedAllocator", ptr %7, i32 0, i32 2
  %9 = load i64, ptr %8, align 8
  %10 = icmp uge i64 %9, 1024
  br i1 %10, label %11, label %12

11:                                               ; preds = %2
  call void @_ZN4Luau14TypedAllocatorINS_7VariantIJNS_8VariadicENS_8NegationENS_11ConjunctionENS_11DisjunctionENS_11EquivalenceENS_11PropositionEEEEE11appendBlockEv(ptr noundef nonnull align 8 dereferenceable(40) %7)
  br label %12

12:                                               ; preds = %11, %2
  %13 = getelementptr inbounds %"class.Luau::TypedAllocator", ptr %7, i32 0, i32 1
  %14 = call noundef nonnull align 8 dereferenceable(8) ptr @_ZNSt6vectorIPN4Luau7VariantIJNS0_8VariadicENS0_8NegationENS0_11ConjunctionENS0_11DisjunctionENS0_11EquivalenceENS0_11PropositionEEEESaIS9_EE4backEv(ptr noundef nonnull align 8 dereferenceable(24) %13) #9
  %15 = load ptr, ptr %14, align 8
  store ptr %15, ptr %5, align 8
  %16 = load ptr, ptr %5, align 8
  %17 = getelementptr inbounds %"class.Luau::TypedAllocator", ptr %7, i32 0, i32 2
  %18 = load i64, ptr %17, align 8
  %19 = getelementptr inbounds %"class.Luau::Variant", ptr %16, i64 %18
  store ptr %19, ptr %6, align 8
  %20 = load ptr, ptr %6, align 8
  %21 = load ptr, ptr %4, align 8
  call void @_ZN4Luau7VariantIJNS_8VariadicENS_8NegationENS_11ConjunctionENS_11DisjunctionENS_11EquivalenceENS_11PropositionEEEC2IS5_EEOT_PNSt9enable_ifIXgecl9getTypeIdIS9_EELi0EEvE4typeE(ptr noundef nonnull align 8 dereferenceable(32) %20, ptr noundef nonnull align 8 dereferenceable(16) %21, ptr noundef null)
  %22 = getelementptr inbounds %"class.Luau::TypedAllocator", ptr %7, i32 0, i32 2
  %23 = load i64, ptr %22, align 8
  %24 = add i64 %23, 1
  store i64 %24, ptr %22, align 8
  %25 = load ptr, ptr %6, align 8
  ret ptr %25
}

; Function Attrs: mustprogress uwtable
define dso_local noundef ptr @_ZN4Luau15RefinementArena11equivalenceEPNS_7VariantIJNS_8VariadicENS_8NegationENS_11ConjunctionENS_11DisjunctionENS_11EquivalenceENS_11PropositionEEEES9_(ptr noundef nonnull align 8 dereferenceable(40) %0, ptr noundef %1, ptr noundef %2) #0 align 2 {
  %4 = alloca ptr, align 8
  %5 = alloca ptr, align 8
  %6 = alloca ptr, align 8
  %7 = alloca ptr, align 8
  %8 = alloca %"struct.Luau::NotNull", align 8
  %9 = alloca %"struct.Luau::Equivalence", align 8
  store ptr %0, ptr %5, align 8
  store ptr %1, ptr %6, align 8
  store ptr %2, ptr %7, align 8
  %10 = load ptr, ptr %5, align 8
  %11 = load ptr, ptr %6, align 8
  %12 = icmp ne ptr %11, null
  br i1 %12, label %17, label %13

13:                                               ; preds = %3
  %14 = load ptr, ptr %7, align 8
  %15 = icmp ne ptr %14, null
  br i1 %15, label %17, label %16

16:                                               ; preds = %13
  store ptr null, ptr %4, align 8
  br label %25

17:                                               ; preds = %13, %3
  %18 = getelementptr inbounds %"struct.Luau::RefinementArena", ptr %10, i32 0, i32 0
  %19 = getelementptr inbounds %"struct.Luau::Equivalence", ptr %9, i32 0, i32 0
  %20 = load ptr, ptr %6, align 8
  store ptr %20, ptr %19, align 8
  %21 = getelementptr inbounds %"struct.Luau::Equivalence", ptr %9, i32 0, i32 1
  %22 = load ptr, ptr %7, align 8
  store ptr %22, ptr %21, align 8
  %23 = call noundef ptr @_ZN4Luau14TypedAllocatorINS_7VariantIJNS_8VariadicENS_8NegationENS_11ConjunctionENS_11DisjunctionENS_11EquivalenceENS_11PropositionEEEEE8allocateIJS6_EEEPS8_DpOT_(ptr noundef nonnull align 8 dereferenceable(40) %18, ptr noundef nonnull align 8 dereferenceable(16) %9)
  call void @_ZN4Luau7NotNullINS_7VariantIJNS_8VariadicENS_8NegationENS_11ConjunctionENS_11DisjunctionENS_11EquivalenceENS_11PropositionEEEEEC2EPS8_(ptr noundef nonnull align 8 dereferenceable(8) %8, ptr noundef %23)
  %24 = call noundef ptr @_ZNK4Luau7NotNullINS_7VariantIJNS_8VariadicENS_8NegationENS_11ConjunctionENS_11DisjunctionENS_11EquivalenceENS_11PropositionEEEEEcvPS8_Ev(ptr noundef nonnull align 8 dereferenceable(8) %8) #9
  store ptr %24, ptr %4, align 8
  br label %25

25:                                               ; preds = %17, %16
  %26 = load ptr, ptr %4, align 8
  ret ptr %26
}